; Function Attrs: mustprogress uwtable
define noundef double @_ZNK8QuantLib28AnalyticComplexChooserEngine10volatilityEd(ptr nocapture noundef nonnull readonly align 8 dereferenceable(408) %this, double noundef %t) local_unnamed_addr #7 align 2 {
entry:
  %process_ = getelementptr inbounds nuw i8, ptr %this, i64 392
  %0 = load ptr, ptr %process_, align 8, !tbaa !39
  %cmp.not.i = icmp eq ptr %0, null
  br i1 %cmp.not.i, label %cond.false.i, label %_ZNK5boost10shared_ptrIN8QuantLib30GeneralizedBlackScholesProcessEEptEv.exit, !prof !46

cond.false.i:                                     ; preds = %entry
  tail call void @_ZN5boost16assertion_failedEPKcS1_S1_l(ptr noundef nonnull @.str.9, ptr noundef nonnull @__PRETTY_FUNCTION__._ZNK5boost10shared_ptrIN8QuantLib30GeneralizedBlackScholesProcessEEptEv, ptr noundef nonnull @.str.10, i64 noundef 784)
  %.pre.i = load ptr, ptr %process_, align 8, !tbaa !39
  br label %_ZNK5boost10shared_ptrIN8QuantLib30GeneralizedBlackScholesProcessEEptEv.exit

_ZNK5boost10shared_ptrIN8QuantLib30GeneralizedBlackScholesProcessEEptEv.exit: ; preds = %entry, %cond.false.i
  %1 = phi ptr [ %0, %entry ], [ %.pre.i, %cond.false.i ]
  %call2 = tail call noundef nonnull align 8 dereferenceable(16) ptr @_ZNK8QuantLib30GeneralizedBlackScholesProcess15blackVolatilityEv(ptr noundef nonnull align 8 dereferenceable(250) %1)
  %call3 = tail call noundef nonnull align 8 dereferenceable(16) ptr @_ZNK8QuantLib6HandleINS_21BlackVolTermStructureEEptEv(ptr noundef nonnull align 8 dereferenceable(16) %call2)
  %2 = load ptr, ptr %call3, align 8, !tbaa !88
  %cmp.not.i1 = icmp eq ptr %2, null
  br i1 %cmp.not.i1, label %cond.false.i2, label %_ZNK5boost10shared_ptrIN8QuantLib21BlackVolTermStructureEEptEv.exit, !prof !46

cond.false.i2:                                    ; preds = %_ZNK5boost10shared_ptrIN8QuantLib30GeneralizedBlackScholesProcessEEptEv.exit
  tail call void @_ZN5boost16assertion_failedEPKcS1_S1_l(ptr noundef nonnull @.str.9, ptr noundef nonnull @__PRETTY_FUNCTION__._ZNK5boost10shared_ptrIN8QuantLib21BlackVolTermStructureEEptEv, ptr noundef nonnull @.str.10, i64 noundef 784)
  %.pre.i3 = load ptr, ptr %call3, align 8, !tbaa !88
  br label %_ZNK5boost10shared_ptrIN8QuantLib21BlackVolTermStructureEEptEv.exit

_ZNK5boost10shared_ptrIN8QuantLib21BlackVolTermStructureEEptEv.exit: ; preds = %_ZNK5boost10shared_ptrIN8QuantLib30GeneralizedBlackScholesProcessEEptEv.exit, %cond.false.i2
  %3 = phi ptr [ %2, %_ZNK5boost10shared_ptrIN8QuantLib30GeneralizedBlackScholesProcessEEptEv.exit ], [ %.pre.i3, %cond.false.i2 ]
  %strikeCall = getelementptr inbounds nuw i8, ptr %this, i64 160
  %4 = load double, ptr %strikeCall, align 8, !tbaa !47
  tail call void @_ZNK8QuantLib13TermStructure10checkRangeEdb(ptr noundef nonnull align 8 dereferenceable(64) %3, double noundef %t, i1 noundef zeroext false)
  tail call void @_ZNK8QuantLib23VolatilityTermStructure11checkStrikeEdb(ptr noundef nonnull align 8 dereferenceable(68) %3, double noundef %4, i1 noundef zeroext false)
  %vtable.i = load ptr, ptr %3, align 8, !tbaa !35
  %vfn.i = getelementptr inbounds i8, ptr %vtable.i, i64 112
  %5 = load ptr, ptr %vfn.i, align 8
  %call.i = tail call noundef double %5(ptr noundef nonnull align 8 dereferenceable(68) %3, double noundef %t, double noundef %4)
  ret double %call.i
}